c__builtin__
set
p0
((lp1
(V23842907216870195
p2
(V1513069245409696
p3
V1511257378924216
p4
tp5
VU4827222
p6
I5319
tp7
a(V23842907204510195
p8
(V1513069245409696
p9
V1511257378924216
p10
tp11
VU4827206
p12
I5328
tp13
a(V23842907216880195
p14
(V1513069245409696
p15
V1511257378924216
p16
tp17
VU4827219
p18
I5320
tp19
a(V23842901821350195
p20
(V1582139758675585
p21
tp22
VU4824280
p23
I5309
tp24
a(V23842901748050195
p25
(V30195358
p26
tp27
VU4823554
p28
I5300
tp29
a(V23842907216990195
p30
(V10152807984040851
p31
tp32
VU4827311
p33
I5327
tp34
a(V23842907216810195
p35
(V1513069245409696
p36
V1511257378924216
p37
tp38
VU4827211
p39
I5317
tp40
a(V23842901821130195
p41
(V1582139758675585
p42
tp43
VU4824270
p44
I5307
tp45
a(V23842910535270195
p46
(V10153547825027117
p47
V10152206867027117
p48
tp49
VU4829745
p50
I5333
tp51
a(V23842907216970195
p52
(V10203435419557117
p53
tp54
VU4827346
p55
I5325
tp56
a(V23842901816650195
p57
(V30195358
p58
tp59
VU4823538
p60
I5304
tp61
a(V23842907216690195
p62
(V801210926752253
p63
tp64
VU4826798
p65
I5313
tp66
a(V23842907216940195
p67
(V1513069245409696
p68
V1511257378924216
p69
tp70
VU4827207
p71
I5322
tp72
a(V23842910909530195
p73
(V10154104479424487
p74
tp75
VU4830312
p76
I5336
tp77
a(V23842907216860195
p78
(V1513069245409696
p79
V1511257378924216
p80
tp81
VU4827228
p82
I5318
tp83
a(V23842907216680195
p84
(V801210926752253
p85
tp86
VU4826788
p87
I5312
tp88
a(V23842907216800195
p89
(V801210926752253
p90
tp91
VU4826791
p92
I5316
tp93
a(V23842907216710195
p94
(V801210926752253
p95
tp96
VU4826779
p97
I5314
tp98
a(V23842907216980195
p99
(V10152807984040851
p100
tp101
VU4827298
p102
I5326
tp103
a(V23842907216950195
p104
(V10152807984040851
p105
tp106
VU4827304
p107
I5323
tp108
a(V23842907216750195
p109
(V801210926752253
p110
tp111
VU4826787
p112
I5315
tp113
a(V23842847525230195
p114
(V1799649224
p115
tp116
V9960e5fde9422
p117
I4806
tp118
a(V23842901821290195
p119
(V1582139758675585
p120
tp121
VU4824275
p122
I5308
tp123
a(V23842908205040195
p124
(V10155451904505794
p125
V224589731597638
p126
tp127
VU4828097
p128
I5330
tp129
a(V23842901816910195
p130
(V30195358
p131
tp132
VU4823540
p133
I5306
tp134
a(V23842907217000195
p135
(V10152807984040851
p136
tp137
VU4827317
p138
I5329
tp139
a(V23842901748060195
p140
(V225761571361713
p141
tp142
VU4823509
p143
I5301
tp144
a(V23842907216930195
p145
(V1513069245409696
p146
V1511257378924216
p147
tp148
VU4827214
p149
I5321
tp150
a(V23842901816480195
p151
(V251226678
p152
tp153
VU4822963
p154
I5303
tp155
a(V23842862405970195
p156
(V382626278909687
p157
tp158
VU4790960
p159
I4862
tp160
a(V23842901816260195
p161
(V30195358
p162
tp163
VU4823543
p164
I5302
tp165
a(V23842910870740195
p166
(V10154104479424487
p167
tp168
VU4830311
p169
I5335
tp170
a(V23842910870730195
p171
(V10154104479424487
p172
tp173
VU4830310
p174
I5334
tp175
a(V23842907216960195
p176
(V10152807984040851
p177
tp178
VU4827315
p179
I5324
tp180
a(V23842901748040195
p181
(V1656448504656002
p182
V1656448414656011
p183
V1656448251322694
p184
V1656448477989338
p185
tp186
VU4824080
p187
I5299
tp188
a(V23842901816900195
p189
(V30195358
p190
tp191
VU4823551
p192
I5305
tp193
a(V23842907216670195
p194
(V801210926752253
p195
tp196
VU4826783
p197
I5311
tp198
a(V23842901852800195
p199
(V1582139758675585
p200
tp201
VU4824284
p202
I5310
tp203
atp204
Rp205
.